target datalayout = "e-m:e-p270:32:32-p271:32:32-p272:64:64-i64:64-i128:128-f80:128-n8:16:32:64-S128"
target triple = "x86_64-pc-linux-gnu"

%"class.ZXing::BitMatrix" = type { i32, i32, %"class.std::vector" }
%"class.std::vector" = type { %"struct.std::_Vector_base" }
%"struct.std::_Vector_base" = type { %"struct.std::_Vector_base<unsigned char, std::allocator<unsigned char>>::_Vector_impl" }
%"struct.std::_Vector_base<unsigned char, std::allocator<unsigned char>>::_Vector_impl" = type { %"struct.std::_Vector_base<unsigned char, std::allocator<unsigned char>>::_Vector_impl_data" }
%"struct.std::_Vector_base<unsigned char, std::allocator<unsigned char>>::_Vector_impl_data" = type { ptr, ptr, ptr }

@.str.11 = private unnamed_addr constant [74 x i8] c"vector::_M_range_check: __n (which is %zu) >= this->size() (which is %zu)\00", align 1

; Function Attrs: mustprogress nounwind uwtable
define linkonce_odr noundef i64 @_ZNKSt6vectorIhSaIhEE4sizeEv(ptr noundef nonnull align 8 dereferenceable(24) %0) #3 comdat align 2 {
  %2 = alloca ptr, align 8
  store ptr %0, ptr %2, align 8, !tbaa !60
  %3 = load ptr, ptr %2, align 8
  %4 = getelementptr inbounds nuw %"struct.std::_Vector_base", ptr %3, i32 0, i32 0
  %5 = getelementptr inbounds nuw %"struct.std::_Vector_base<unsigned char, std::allocator<unsigned char>>::_Vector_impl_data", ptr %4, i32 0, i32 1
  %6 = load ptr, ptr %5, align 8, !tbaa !64
  %7 = getelementptr inbounds nuw %"struct.std::_Vector_base", ptr %3, i32 0, i32 0
  %8 = getelementptr inbounds nuw %"struct.std::_Vector_base<unsigned char, std::allocator<unsigned char>>::_Vector_impl_data", ptr %7, i32 0, i32 0
  %9 = load ptr, ptr %8, align 8, !tbaa !65
  %10 = ptrtoint ptr %6 to i64
  %11 = ptrtoint ptr %9 to i64
  %12 = sub i64 %10, %11
  ret i64 %12
}

; Function Attrs: mustprogress nounwind uwtable
define linkonce_odr noundef nonnull align 1 dereferenceable(1) ptr @_ZNKSt6vectorIhSaIhEEixEm(ptr noundef nonnull align 8 dereferenceable(24) %0, i64 noundef %1) #3 comdat align 2 {
  %3 = alloca ptr, align 8
  %4 = alloca i64, align 8
  store ptr %0, ptr %3, align 8, !tbaa !60
  store i64 %1, ptr %4, align 8, !tbaa !41
  %5 = load ptr, ptr %3, align 8
  %6 = getelementptr inbounds nuw %"struct.std::_Vector_base", ptr %5, i32 0, i32 0
  %7 = getelementptr inbounds nuw %"struct.std::_Vector_base<unsigned char, std::allocator<unsigned char>>::_Vector_impl_data", ptr %6, i32 0, i32 0
  %8 = load ptr, ptr %7, align 8, !tbaa !65
  %9 = load i64, ptr %4, align 8, !tbaa !41
  %10 = getelementptr inbounds nuw i8, ptr %8, i64 %9
  ret ptr %10
}

; Function Attrs: mustprogress uwtable
define linkonce_odr void @_ZNKSt6vectorIhSaIhEE14_M_range_checkEm(ptr noundef nonnull align 8 dereferenceable(24) %0, i64 noundef %1) #0 comdat align 2 {
  %3 = alloca ptr, align 8
  %4 = alloca i64, align 8
  store ptr %0, ptr %3, align 8, !tbaa !60
  store i64 %1, ptr %4, align 8, !tbaa !41
  %5 = load ptr, ptr %3, align 8
  %6 = load i64, ptr %4, align 8, !tbaa !41
  %7 = call noundef i64 @_ZNKSt6vectorIhSaIhEE4sizeEv(ptr noundef nonnull align 8 dereferenceable(24) %5) #17
  %8 = icmp uge i64 %6, %7
  br i1 %8, label %9, label %12

9:                                                ; preds = %2
  %10 = load i64, ptr %4, align 8, !tbaa !41
  %11 = call noundef i64 @_ZNKSt6vectorIhSaIhEE4sizeEv(ptr noundef nonnull align 8 dereferenceable(24) %5) #17
  call void (ptr, ...) @_ZSt24__throw_out_of_range_fmtPKcz(ptr noundef @.str.11, i64 noundef %10, i64 noundef %11) #18
  unreachable

12:                                               ; preds = %2
  ret void
}

; Function Attrs: mustprogress uwtable
define linkonce_odr noundef nonnull align 1 dereferenceable(1) ptr @_ZNKSt6vectorIhSaIhEE2atEm(ptr noundef nonnull align 8 dereferenceable(24) %0, i64 noundef %1) #0 comdat align 2 {
  %3 = alloca ptr, align 8
  %4 = alloca i64, align 8
  store ptr %0, ptr %3, align 8, !tbaa !60
  store i64 %1, ptr %4, align 8, !tbaa !41
  %5 = load ptr, ptr %3, align 8
  %6 = load i64, ptr %4, align 8, !tbaa !41
  call void @_ZNKSt6vectorIhSaIhEE14_M_range_checkEm(ptr noundef nonnull align 8 dereferenceable(24) %5, i64 noundef %6)
  %7 = load i64, ptr %4, align 8, !tbaa !41
  %8 = call noundef nonnull align 1 dereferenceable(1) ptr @_ZNKSt6vectorIhSaIhEEixEm(ptr noundef nonnull align 8 dereferenceable(24) %5, i64 noundef %7) #17
  ret ptr %8
}

; Function Attrs: mustprogress uwtable
define linkonce_odr noundef nonnull align 1 dereferenceable(1) ptr @_ZNK5ZXing9BitMatrix3getEi(ptr noundef nonnull align 8 dereferenceable(32) %0, i32 noundef %1) #0 comdat align 2 {
  %3 = alloca ptr, align 8
  %4 = alloca i32, align 4
  store ptr %0, ptr %3, align 8, !tbaa !29
  store i32 %1, ptr %4, align 4, !tbaa !8
  %5 = load ptr, ptr %3, align 8
  %6 = getelementptr inbounds nuw %"class.ZXing::BitMatrix", ptr %5, i32 0, i32 2
  %7 = load i32, ptr %4, align 4, !tbaa !8
  %8 = sext i32 %7 to i64
  %9 = call noundef nonnull align 1 dereferenceable(1) ptr @_ZNKSt6vectorIhSaIhEE2atEm(ptr noundef nonnull align 8 dereferenceable(24) %6, i64 noundef %8)
  ret ptr %9
}

; Function Attrs: mustprogress uwtable
define linkonce_odr noundef nonnull align 1 dereferenceable(1) ptr @_ZN5ZXing9BitMatrix3getEi(ptr noundef nonnull align 8 dereferenceable(32) %0, i32 noundef %1) #0 comdat align 2 {
  %3 = alloca ptr, align 8
  %4 = alloca i32, align 4
  store ptr %0, ptr %3, align 8, !tbaa !29
  store i32 %1, ptr %4, align 4, !tbaa !8
  %5 = load ptr, ptr %3, align 8
  %6 = load i32, ptr %4, align 4, !tbaa !8
  %7 = call noundef nonnull align 1 dereferenceable(1) ptr @_ZNK5ZXing9BitMatrix3getEi(ptr noundef nonnull align 8 dereferenceable(32) %5, i32 noundef %6)
  ret ptr %7
}

; Function Attrs: mustprogress uwtable
define linkonce_odr void @_ZN5ZXing9BitMatrix3setEiib(ptr noundef nonnull align 8 dereferenceable(32) %0, i32 noundef %1, i32 noundef %2, i1 noundef zeroext %3) #0 comdat align 2 {
  %5 = alloca ptr, align 8
  %6 = alloca i32, align 4
  %7 = alloca i32, align 4
  %8 = alloca i8, align 1
  store ptr %0, ptr %5, align 8, !tbaa !29
  store i32 %1, ptr %6, align 4, !tbaa !8
  store i32 %2, ptr %7, align 4, !tbaa !8
  %9 = zext i1 %3 to i8
  store i8 %9, ptr %8, align 1, !tbaa !10
  %10 = load ptr, ptr %5, align 8
  %11 = load i8, ptr %8, align 1, !tbaa !10, !range !12, !noundef !13
  %12 = trunc i8 %11 to i1
  %13 = zext i1 %12 to i32
  %14 = mul nsw i32 %13, 255
  %15 = trunc i32 %14 to i8
  %16 = load i32, ptr %7, align 4, !tbaa !8
  %17 = getelementptr inbounds nuw %"class.ZXing::BitMatrix", ptr %10, i32 0, i32 0
  %18 = load i32, ptr %17, align 8, !tbaa !52
  %19 = mul nsw i32 %16, %18
  %20 = load i32, ptr %6, align 4, !tbaa !8
  %21 = add nsw i32 %19, %20
  %22 = call noundef nonnull align 1 dereferenceable(1) ptr @_ZN5ZXing9BitMatrix3getEi(ptr noundef nonnull align 8 dereferenceable(32) %10, i32 noundef %21)
  store i8 %15, ptr %22, align 1, !tbaa !16
  ret void
}

; Function Attrs: mustprogress uwtable
define internal void @_ZN5ZXing5AztecL12DrawBullsEyeERNS_9BitMatrixEii(ptr noundef nonnull align 8 dereferenceable(32) %0, i32 noundef %1, i32 noundef %2) #0 {
  %4 = alloca ptr, align 8
  %5 = alloca i32, align 4
  %6 = alloca i32, align 4
  %7 = alloca i32, align 4
  %8 = alloca i32, align 4
  %9 = alloca i32, align 4
  store ptr %0, ptr %4, align 8, !tbaa !29
  store i32 %1, ptr %5, align 4, !tbaa !8
  store i32 %2, ptr %6, align 4, !tbaa !8
  call void @llvm.lifetime.start.p0(i64 4, ptr %7) #17
  store i32 0, ptr %7, align 4, !tbaa !8
  br label %10

10:                                               ; preds = %51, %3
  %11 = load i32, ptr %7, align 4, !tbaa !8
  %12 = load i32, ptr %6, align 4, !tbaa !8
  %13 = icmp slt i32 %11, %12
  br i1 %13, label %15, label %14

14:                                               ; preds = %10
  store i32 2, ptr %8, align 4
  call void @llvm.lifetime.end.p0(i64 4, ptr %7) #17
  br label %54

15:                                               ; preds = %10
  call void @llvm.lifetime.start.p0(i64 4, ptr %9) #17
  %16 = load i32, ptr %5, align 4, !tbaa !8
  %17 = load i32, ptr %7, align 4, !tbaa !8
  %18 = sub nsw i32 %16, %17
  store i32 %18, ptr %9, align 4, !tbaa !8
  br label %19

19:                                               ; preds = %47, %15
  %20 = load i32, ptr %9, align 4, !tbaa !8
  %21 = load i32, ptr %5, align 4, !tbaa !8
  %22 = load i32, ptr %7, align 4, !tbaa !8
  %23 = add nsw i32 %21, %22
  %24 = icmp sle i32 %20, %23
  br i1 %24, label %26, label %25

25:                                               ; preds = %19
  store i32 5, ptr %8, align 4
  call void @llvm.lifetime.end.p0(i64 4, ptr %9) #17
  br label %50

26:                                               ; preds = %19
  %27 = load ptr, ptr %4, align 8, !tbaa !29
  %28 = load i32, ptr %9, align 4, !tbaa !8
  %29 = load i32, ptr %5, align 4, !tbaa !8
  %30 = load i32, ptr %7, align 4, !tbaa !8
  %31 = sub nsw i32 %29, %30
  call void @_ZN5ZXing9BitMatrix3setEiib(ptr noundef nonnull align 8 dereferenceable(32) %27, i32 noundef %28, i32 noundef %31, i1 noundef zeroext true)
  %32 = load ptr, ptr %4, align 8, !tbaa !29
  %33 = load i32, ptr %9, align 4, !tbaa !8
  %34 = load i32, ptr %5, align 4, !tbaa !8
  %35 = load i32, ptr %7, align 4, !tbaa !8
  %36 = add nsw i32 %34, %35
  call void @_ZN5ZXing9BitMatrix3setEiib(ptr noundef nonnull align 8 dereferenceable(32) %32, i32 noundef %33, i32 noundef %36, i1 noundef zeroext true)
  %37 = load ptr, ptr %4, align 8, !tbaa !29
  %38 = load i32, ptr %5, align 4, !tbaa !8
  %39 = load i32, ptr %7, align 4, !tbaa !8
  %40 = sub nsw i32 %38, %39
  %41 = load i32, ptr %9, align 4, !tbaa !8
  call void @_ZN5ZXing9BitMatrix3setEiib(ptr noundef nonnull align 8 dereferenceable(32) %37, i32 noundef %40, i32 noundef %41, i1 noundef zeroext true)
  %42 = load ptr, ptr %4, align 8, !tbaa !29
  %43 = load i32, ptr %5, align 4, !tbaa !8
  %44 = load i32, ptr %7, align 4, !tbaa !8
  %45 = add nsw i32 %43, %44
  %46 = load i32, ptr %9, align 4, !tbaa !8
  call void @_ZN5ZXing9BitMatrix3setEiib(ptr noundef nonnull align 8 dereferenceable(32) %42, i32 noundef %45, i32 noundef %46, i1 noundef zeroext true)
  br label %47

47:                                               ; preds = %26
  %48 = load i32, ptr %9, align 4, !tbaa !8
  %49 = add nsw i32 %48, 1
  store i32 %49, ptr %9, align 4, !tbaa !8
  br label %19, !llvm.loop !55

50:                                               ; preds = %25
  br label %51

51:                                               ; preds = %50
  %52 = load i32, ptr %7, align 4, !tbaa !8
  %53 = add nsw i32 %52, 2
  store i32 %53, ptr %7, align 4, !tbaa !8
  br label %10, !llvm.loop !56

54:                                               ; preds = %14
  %55 = load ptr, ptr %4, align 8, !tbaa !29
  %56 = load i32, ptr %5, align 4, !tbaa !8
  %57 = load i32, ptr %6, align 4, !tbaa !8
  %58 = sub nsw i32 %56, %57
  %59 = load i32, ptr %5, align 4, !tbaa !8
  %60 = load i32, ptr %6, align 4, !tbaa !8
  %61 = sub nsw i32 %59, %60
  call void @_ZN5ZXing9BitMatrix3setEiib(ptr noundef nonnull align 8 dereferenceable(32) %55, i32 noundef %58, i32 noundef %61, i1 noundef zeroext true)
  %62 = load ptr, ptr %4, align 8, !tbaa !29
  %63 = load i32, ptr %5, align 4, !tbaa !8
  %64 = load i32, ptr %6, align 4, !tbaa !8
  %65 = sub nsw i32 %63, %64
  %66 = add nsw i32 %65, 1
  %67 = load i32, ptr %5, align 4, !tbaa !8
  %68 = load i32, ptr %6, align 4, !tbaa !8
  %69 = sub nsw i32 %67, %68
  call void @_ZN5ZXing9BitMatrix3setEiib(ptr noundef nonnull align 8 dereferenceable(32) %62, i32 noundef %66, i32 noundef %69, i1 noundef zeroext true)
  %70 = load ptr, ptr %4, align 8, !tbaa !29
  %71 = load i32, ptr %5, align 4, !tbaa !8
  %72 = load i32, ptr %6, align 4, !tbaa !8
  %73 = sub nsw i32 %71, %72
  %74 = load i32, ptr %5, align 4, !tbaa !8
  %75 = load i32, ptr %6, align 4, !tbaa !8
  %76 = sub nsw i32 %74, %75
  %77 = add nsw i32 %76, 1
  call void @_ZN5ZXing9BitMatrix3setEiib(ptr noundef nonnull align 8 dereferenceable(32) %70, i32 noundef %73, i32 noundef %77, i1 noundef zeroext true)
  %78 = load ptr, ptr %4, align 8, !tbaa !29
  %79 = load i32, ptr %5, align 4, !tbaa !8
  %80 = load i32, ptr %6, align 4, !tbaa !8
  %81 = add nsw i32 %79, %80
  %82 = load i32, ptr %5, align 4, !tbaa !8
  %83 = load i32, ptr %6, align 4, !tbaa !8
  %84 = sub nsw i32 %82, %83
  call void @_ZN5ZXing9BitMatrix3setEiib(ptr noundef nonnull align 8 dereferenceable(32) %78, i32 noundef %81, i32 noundef %84, i1 noundef zeroext true)
  %85 = load ptr, ptr %4, align 8, !tbaa !29
  %86 = load i32, ptr %5, align 4, !tbaa !8
  %87 = load i32, ptr %6, align 4, !tbaa !8
  %88 = add nsw i32 %86, %87
  %89 = load i32, ptr %5, align 4, !tbaa !8
  %90 = load i32, ptr %6, align 4, !tbaa !8
  %91 = sub nsw i32 %89, %90
  %92 = add nsw i32 %91, 1
  call void @_ZN5ZXing9BitMatrix3setEiib(ptr noundef nonnull align 8 dereferenceable(32) %85, i32 noundef %88, i32 noundef %92, i1 noundef zeroext true)
  %93 = load ptr, ptr %4, align 8, !tbaa !29
  %94 = load i32, ptr %5, align 4, !tbaa !8
  %95 = load i32, ptr %6, align 4, !tbaa !8
  %96 = add nsw i32 %94, %95
  %97 = load i32, ptr %5, align 4, !tbaa !8
  %98 = load i32, ptr %6, align 4, !tbaa !8
  %99 = add nsw i32 %97, %98
  %100 = sub nsw i32 %99, 1
  call void @_ZN5ZXing9BitMatrix3setEiib(ptr noundef nonnull align 8 dereferenceable(32) %93, i32 noundef %96, i32 noundef %100, i1 noundef zeroext true)
  ret void
}